target datalayout = "e-m:e-p270:32:32-p271:32:32-p272:64:64-i64:64-i128:128-f80:128-n8:16:32:64-S128"
target triple = "x86_64-pc-linux-gnu"

%"class.Json::Value::CZString" = type <{ ptr, %union.anon, [4 x i8] }>
%union.anon = type { i32 }
%"class.std::__cxx11::basic_string" = type { %"struct.std::__cxx11::basic_string<char>::_Alloc_hider", i64, %union.anon.2 }
%"struct.std::__cxx11::basic_string<char>::_Alloc_hider" = type { ptr }
%union.anon.2 = type { i64, [8 x i8] }
%"class.std::allocator" = type { i8 }

@.str.4 = private unnamed_addr constant [19 x i8] c"assert json failed\00", align 1

; Function Attrs: mustprogress nounwind uwtable
define linkonce_odr dso_local noundef nonnull align 4 dereferenceable(4) ptr @_ZSt3minIjERKT_S2_S2_(ptr noundef nonnull align 4 dereferenceable(4) %0, ptr noundef nonnull align 4 dereferenceable(4) %1) #5 comdat {
  %3 = alloca ptr, align 8
  %4 = alloca ptr, align 8
  %5 = alloca ptr, align 8
  store ptr %0, ptr %4, align 8
  store ptr %1, ptr %5, align 8
  %6 = load ptr, ptr %5, align 8
  %7 = load i32, ptr %6, align 4
  %8 = load ptr, ptr %4, align 8
  %9 = load i32, ptr %8, align 4
  %10 = icmp ult i32 %7, %9
  br i1 %10, label %11, label %13

11:                                               ; preds = %2
  %12 = load ptr, ptr %5, align 8
  store ptr %12, ptr %3, align 8
  br label %15

13:                                               ; preds = %2
  %14 = load ptr, ptr %4, align 8
  store ptr %14, ptr %3, align 8
  br label %15

15:                                               ; preds = %13, %11
  %16 = load ptr, ptr %3, align 8
  ret ptr %16
}

; Function Attrs: mustprogress uwtable
define dso_local noundef zeroext i1 @_ZNK4Json5Value8CZStringltERKS1_(ptr noundef nonnull align 8 dereferenceable(12) %0, ptr noundef nonnull align 8 dereferenceable(12) %1) #4 align 2 personality ptr @__gxx_personality_v0 {
  %3 = alloca i1, align 1
  %4 = alloca ptr, align 8
  %5 = alloca ptr, align 8
  %6 = alloca i32, align 4
  %7 = alloca i32, align 4
  %8 = alloca i32, align 4
  %9 = alloca %"class.std::__cxx11::basic_string", align 8
  %10 = alloca %"class.std::allocator", align 1
  %11 = alloca ptr, align 8
  %12 = alloca i32, align 4
  %13 = alloca i32, align 4
  store ptr %0, ptr %4, align 8
  store ptr %1, ptr %5, align 8
  %14 = load ptr, ptr %4, align 8
  %15 = getelementptr inbounds %"class.Json::Value::CZString", ptr %14, i32 0, i32 0
  %16 = load ptr, ptr %15, align 8
  %17 = icmp ne ptr %16, null
  br i1 %17, label %25, label %18

18:                                               ; preds = %2
  %19 = getelementptr inbounds %"class.Json::Value::CZString", ptr %14, i32 0, i32 1
  %20 = load i32, ptr %19, align 8
  %21 = load ptr, ptr %5, align 8
  %22 = getelementptr inbounds %"class.Json::Value::CZString", ptr %21, i32 0, i32 1
  %23 = load i32, ptr %22, align 8
  %24 = icmp ult i32 %20, %23
  store i1 %24, ptr %3, align 1
  br label %77

25:                                               ; preds = %2
  %26 = getelementptr inbounds %"class.Json::Value::CZString", ptr %14, i32 0, i32 1
  %27 = load i32, ptr %26, align 8
  %28 = lshr i32 %27, 2
  store i32 %28, ptr %6, align 4
  %29 = load ptr, ptr %5, align 8
  %30 = getelementptr inbounds %"class.Json::Value::CZString", ptr %29, i32 0, i32 1
  %31 = load i32, ptr %30, align 8
  %32 = lshr i32 %31, 2
  store i32 %32, ptr %7, align 4
  %33 = call noundef nonnull align 4 dereferenceable(4) ptr @_ZSt3minIjERKT_S2_S2_(ptr noundef nonnull align 4 dereferenceable(4) %6, ptr noundef nonnull align 4 dereferenceable(4) %7)
  %34 = load i32, ptr %33, align 4
  store i32 %34, ptr %8, align 4
  br label %35

35:                                               ; preds = %25
  %36 = getelementptr inbounds %"class.Json::Value::CZString", ptr %14, i32 0, i32 0
  %37 = load ptr, ptr %36, align 8
  %38 = icmp ne ptr %37, null
  br i1 %38, label %39, label %44

39:                                               ; preds = %35
  %40 = load ptr, ptr %5, align 8
  %41 = getelementptr inbounds %"class.Json::Value::CZString", ptr %40, i32 0, i32 0
  %42 = load ptr, ptr %41, align 8
  %43 = icmp ne ptr %42, null
  br i1 %43, label %56, label %44

44:                                               ; preds = %39, %35
  call void @_ZNSaIcEC1Ev(ptr noundef nonnull align 1 dereferenceable(1) %10) #3
  invoke void @_ZNSt7__cxx1112basic_stringIcSt11char_traitsIcESaIcEEC2IS3_EEPKcRKS3_(ptr noundef nonnull align 8 dereferenceable(32) %9, ptr noundef @.str.4, ptr noundef nonnull align 1 dereferenceable(1) %10)
          to label %45 unwind label %47

45:                                               ; preds = %44
  invoke void @_ZN4Json15throwLogicErrorERKNSt7__cxx1112basic_stringIcSt11char_traitsIcESaIcEEE(ptr noundef nonnull align 8 dereferenceable(32) %9) #18
          to label %46 unwind label %51

46:                                               ; preds = %45
  unreachable

47:                                               ; preds = %44
  %48 = landingpad { ptr, i32 }
          cleanup
  %49 = extractvalue { ptr, i32 } %48, 0
  store ptr %49, ptr %11, align 8
  %50 = extractvalue { ptr, i32 } %48, 1
  store i32 %50, ptr %12, align 4
  br label %55

51:                                               ; preds = %45
  %52 = landingpad { ptr, i32 }
          cleanup
  %53 = extractvalue { ptr, i32 } %52, 0
  store ptr %53, ptr %11, align 8
  %54 = extractvalue { ptr, i32 } %52, 1
  store i32 %54, ptr %12, align 4
  call void @_ZNSt7__cxx1112basic_stringIcSt11char_traitsIcESaIcEED1Ev(ptr noundef nonnull align 8 dereferenceable(32) %9) #3
  br label %55

55:                                               ; preds = %51, %47
  call void @_ZNSaIcED1Ev(ptr noundef nonnull align 1 dereferenceable(1) %10) #3
  br label %79

56:                                               ; preds = %39
  br label %57

57:                                               ; preds = %56
  %58 = getelementptr inbounds %"class.Json::Value::CZString", ptr %14, i32 0, i32 0
  %59 = load ptr, ptr %58, align 8
  %60 = load ptr, ptr %5, align 8
  %61 = getelementptr inbounds %"class.Json::Value::CZString", ptr %60, i32 0, i32 0
  %62 = load ptr, ptr %61, align 8
  %63 = load i32, ptr %8, align 4
  %64 = zext i32 %63 to i64
  %65 = call i32 @memcmp(ptr noundef %59, ptr noundef %62, i64 noundef %64) #17
  store i32 %65, ptr %13, align 4
  %66 = load i32, ptr %13, align 4
  %67 = icmp slt i32 %66, 0
  br i1 %67, label %68, label %69

68:                                               ; preds = %57
  store i1 true, ptr %3, align 1
  br label %77

69:                                               ; preds = %57
  %70 = load i32, ptr %13, align 4
  %71 = icmp sgt i32 %70, 0
  br i1 %71, label %72, label %73

72:                                               ; preds = %69
  store i1 false, ptr %3, align 1
  br label %77

73:                                               ; preds = %69
  %74 = load i32, ptr %6, align 4
  %75 = load i32, ptr %7, align 4
  %76 = icmp ult i32 %74, %75
  store i1 %76, ptr %3, align 1
  br label %77

77:                                               ; preds = %73, %72, %68, %18
  %78 = load i1, ptr %3, align 1
  ret i1 %78

79:                                               ; preds = %55
  %80 = load ptr, ptr %11, align 8
  %81 = load i32, ptr %12, align 4
  %82 = insertvalue { ptr, i32 } poison, ptr %80, 0
  %83 = insertvalue { ptr, i32 } %82, i32 %81, 1
  resume { ptr, i32 } %83
}