; Function Attrs: mustprogress uwtable
define dso_local noundef zeroext i1 @_ZNK4Json5Value8CZStringltERKS1_(ptr nocapture noundef nonnull readonly align 8 dereferenceable(12) %0, ptr nocapture noundef nonnull readonly align 8 dereferenceable(12) %1) local_unnamed_addr #10 align 2 personality ptr @__gxx_personality_v0 {
  %3 = alloca %"class.std::__cxx11::basic_string", align 8
  %4 = alloca %"class.std::allocator", align 1
  %5 = load ptr, ptr %0, align 8
  %.not = icmp eq ptr %5, null
  %6 = getelementptr inbounds i8, ptr %0, i64 8
  %7 = load i32, ptr %6, align 8
  br i1 %.not, label %8, label %12

8:                                                ; preds = %2
  %9 = getelementptr inbounds i8, ptr %1, i64 8
  %10 = load i32, ptr %9, align 8
  %11 = icmp ult i32 %7, %10
  br label %32

12:                                               ; preds = %2
  %13 = lshr i32 %7, 2
  %14 = getelementptr inbounds i8, ptr %1, i64 8
  %15 = load i32, ptr %14, align 8
  %16 = lshr i32 %15, 2
  %17 = load ptr, ptr %1, align 8
  %.not16 = icmp eq ptr %17, null
  br i1 %.not16, label %18, label %26

18:                                               ; preds = %12
  call void @_ZNSaIcEC1Ev(ptr noundef nonnull align 1 dereferenceable(1) %4) #35
  invoke void @_ZNSt7__cxx1112basic_stringIcSt11char_traitsIcESaIcEEC2IS3_EEPKcRKS3_(ptr noundef nonnull align 8 dereferenceable(32) %3, ptr noundef nonnull @.str.4, ptr noundef nonnull align 1 dereferenceable(1) %4)
          to label %19 unwind label %21

19:                                               ; preds = %18
  invoke void @_ZN4Json15throwLogicErrorERKNSt7__cxx1112basic_stringIcSt11char_traitsIcESaIcEEE(ptr noundef nonnull align 8 dereferenceable(32) %3) #37
          to label %20 unwind label %23

20:                                               ; preds = %19
  unreachable

21:                                               ; preds = %18
  %22 = landingpad { ptr, i32 }
          cleanup
  br label %25

23:                                               ; preds = %19
  %24 = landingpad { ptr, i32 }
          cleanup
  call void @_ZNSt7__cxx1112basic_stringIcSt11char_traitsIcESaIcEED1Ev(ptr noundef nonnull align 8 dereferenceable(32) %3) #35
  br label %25

25:                                               ; preds = %23, %21
  %.pn = phi { ptr, i32 } [ %24, %23 ], [ %22, %21 ]
  call void @_ZNSaIcED1Ev(ptr noundef nonnull align 1 dereferenceable(1) %4) #35
  resume { ptr, i32 } %.pn

26:                                               ; preds = %12
  %.sroa.speculated = tail call i32 @llvm.umin.i32(i32 %16, i32 %13)
  %27 = zext nneg i32 %.sroa.speculated to i64
  %28 = tail call i32 @memcmp(ptr noundef nonnull %5, ptr noundef nonnull %17, i64 noundef %27) #36
  %29 = icmp slt i32 %28, 0
  br i1 %29, label %32, label %30

30:                                               ; preds = %26
  %.not18 = icmp eq i32 %28, 0
  %31 = icmp ult i32 %13, %16
  %spec.select = select i1 %.not18, i1 %31, i1 false
  br label %32

32:                                               ; preds = %30, %26, %8
  %.0 = phi i1 [ %11, %8 ], [ true, %26 ], [ %spec.select, %30 ]
  ret i1 %.0
}